(dp1
(Vmy6v
S'success'
tp2
ccopy_reg
_reconstructor
p3
(cpyspider.libs.counter
TotalCounter
p4
c__builtin__
object
p5
NtRp6
(dp7
S'cnt'
p8
I22
sbs(Vmy6v
p9
S'failed'
p10
tp11
g3
(g4
g5
NtRp12
(dp13
g8
I0
sbs(g9
S'pending'
p14
tp15
g3
(g4
g5
NtRp16
(dp17
g8
I0
sbs.